(lp0
(I0
I1
I2
tp1
a(I0
I4
I6
tp2
a(I0
I8
I11
tp3
a(I0
I13
I14
tp4
a(I0
I18
I19
tp5
a(I0
I29
I34
tp6
a(I0
I42
I43
tp7
a(I0
I47
I48
tp8
a(I0
I52
I54
tp9
a(I0
I56
I59
tp10
a(I0
I61
I63
tp11
a(I0
I67
I68
tp12
a(I0
I72
I76
tp13
a(I0
I78
I81
tp14
a(I0
I83
I85
tp15
a(I0
I87
I89
tp16
a(I0
I91
I92
tp17
a(I0
I94
I96
tp18
a(I0
I100
I101
tp19
a(I0
I103
I104
tp20
a(I0
I106
I107
tp21
a(I0
I109
I115
tp22
a(I0
I121
I127
tp23
a(I0
I131
I132
tp24
a(I0
I134
I135
tp25
a(I0
I137
I139
tp26
a(I0
I141
I142
tp27
a(I0
I144
I145
tp28
a(I0
I147
I148
tp29
a(I0
I150
I151
tp30
a(I0
I153
I154
tp31
a(I0
I158
I160
tp32
a(I0
I162
I163
tp33
a(I0
I165
I166
tp34
a(I0
I168
I173
tp35
a(I0
I175
I176
tp36
a(I0
I178
I182
tp37
a(I0
I186
I187
tp38
a(I0
I191
I194
tp39
a(I0
I196
I199
tp40
a(I0
I201
I205
tp41
a(I0
I207
I208
tp42
a(I0
I210
I216
tp43
a(I0
I218
I219
tp44
a(I0
I221
I223
tp45
a(I0
I229
I241
tp46
a(I0
I243
I245
tp47
a(I0
I247
I252
tp48
a(I0
I254
I271
tp49
a(I0
I273
I287
tp50
a(I0
I289
I301
tp51
a(I0
I303
I307
tp52
a(I0
I309
I311
tp53
a(I0
I313
I317
tp54
a(I0
I319
I322
tp55
a(I0
I324
I325
tp56
a(I0
I327
I329
tp57
a(I0
I331
I336
tp58
a(I0
I338
I341
tp59
a(I0
I343
I358
tp60
a(I0
I360
I372
tp61
a(I0
I374
I376
tp62
a(I0
I378
I381
tp63
a(I0
I383
I386
tp64
a(I0
I388
I393
tp65
a(I0
I399
I402
tp66
a(I0
I404
I406
tp67
a(I0
I408
I409
tp68
a(I0
I411
I412
tp69
a(I0
I414
I420
tp70
a(I0
I424
I427
tp71
a(I0
I429
I430
tp72
a(I0
I432
I438
tp73
a(I0
I440
I443
tp74
a(I0
I445
I459
tp75
a(I0
I461
I468
tp76
a(I0
I470
I479
tp77
a(I0
I481
I492
tp78
a(I0
I494
I503
tp79
a(I0
I505
I509
tp80
a(I0
I515
I529
tp81
a(I0
I531
I534
tp82
a(I0
I536
I538
tp83
a(I0
I540
I541
tp84
a(I0
I545
I548
tp85
a(I0
I550
I555
tp86
a(I0
I557
I558
tp87
a(I0
I560
I562
tp88
a(I0
I564
I567
tp89
a(I0
I569
I570
tp90
a(I0
I572
I574
tp91
a(I0
I576
I578
tp92
a(I0
I580
I584
tp93
a(I0
I586
I587
tp94
a(I0
I589
I590
tp95
a(I0
I594
I598
tp96
a(I0
I600
I601
tp97
a(I0
I603
I611
tp98
a(I0
I613
I615
tp99
a(I0
I617
I619
tp100
a(I0
I621
I622
tp101
a(I0
I628
I646
tp102
a(I0
I648
I659
tp103
a(I0
I661
I663
tp104
a(I0
I667
I668
tp105
a(I0
I670
I676
tp106
a(I0
I678
I686
tp107
a(I0
I688
I691
tp108
a(I0
I693
I695
tp109
a(I0
I697
I706
tp110
a(I0
I708
I709
tp111
a(I0
I711
I726
tp112
a(I0
I728
I731
tp113
a(I0
I733
I734
tp114
a(I0
I738
I740
tp115
a(I0
I742
I745
tp116
a(I0
I747
I749
tp117
a(I0
I751
I752
tp118
a(I0
I756
I757
tp119
a(I0
I759
I767
tp120
a(I0
I769
I774
tp121
a(I0
I776
I784
tp122
a(I0
I786
I789
tp123
a(I0
I791
I793
tp124
a(I0
I795
I796
tp125
a(I0
I798
I800
tp126
a(I0
I804
I805
tp127
a(I0
I817
I819
tp128
a(I0
I821
I824
tp129
a(I0
I826
I831
tp130
a(I0
I833
I834
tp131
a(I0
I836
I838
tp132
a(I0
I840
I843
tp133
a(I0
I847
I849
tp134
a(I0
I851
I853
tp135
a(I0
I859
I863
tp136
a(I0
I865
I867
tp137
a(I0
I869
I871
tp138
a(I0
I875
I877
tp139
a(I0
I879
I881
tp140
a(I0
I883
I885
tp141
a(I0
I887
I889
tp142
a(I0
I895
I901
tp143
a(I0
I903
I905
tp144
a(I0
I907
I919
tp145
a(I0
I921
I929
tp146
a(I0
I931
I932
tp147
a(I0
I934
I936
tp148
a(I0
I938
I941
tp149
a(I0
I943
I945
tp150
a(I0
I951
I954
tp151
a(I0
I956
I963
tp152
a(I0
I965
I967
tp153
a(I0
I969
I972
tp154
a(I0
I974
I975
tp155
a(I0
I981
I985
tp156
a(I0
I989
I990
tp157
a(I0
I996
I997
tp158
a(I0
I999
I1000
tp159
a(I0
I1002
I1003
tp160
a(I0
I1007
I1008
tp161
a(I0
I1012
I1013
tp162
a(I0
I1015
I1021
tp163
a(I0
I1023
I1027
tp164
a(I0
I1031
I1036
tp165
a(I0
I1038
I1041
tp166
a(I0
I1043
I1045
tp167
a(I0
I1047
I1049
tp168
a(I0
I1051
I1053
tp169
a(I0
I1057
I1058
tp170
a(I0
I1060
I1061
tp171
a(I0
I1063
I1065
tp172
a(I0
I1067
I1069
tp173
a(I0
I1071
I1072
tp174
a(I0
I1074
I1079
tp175
a(I0
I1081
I1092
tp176
a(I0
I1094
I1103
tp177
a(I0
I1105
I1114
tp178
a(I0
I1116
I1123
tp179
a(I0
I1129
I1139
tp180
a(I0
I1141
I1149
tp181
a(I0
I1151
I1155
tp182
a(I0
I1157
I1159
tp183
a(I0
I1161
I1163
tp184
a(I0
I1165
I1167
tp185
a(I0
I1169
I1172
tp186
a(I0
I1174
I1176
tp187
a(I0
I1180
I1183
tp188
a(I0
I1185
I1186
tp189
a(I0
I1188
I1189
tp190
a(I0
I1191
I1192
tp191
a(I0
I1194
I1197
tp192
a(I0
I1199
I1200
tp193
a(I0
I1206
I1207
tp194
a(I0
I1209
I1210
tp195
a(I0
I1212
I1214
tp196
a(I0
I1216
I1225
tp197
a(I0
I1229
I1230
tp198
a(I0
I1232
I1233
tp199
a(I0
I1235
I1236
tp200
a(I0
I1238
I1240
tp201
a(I0
I1242
I1244
tp202
a(I0
I1246
I1247
tp203
a(I0
I1249
I1251
tp204
a(I0
I1253
I1254
tp205
a(I0
I1256
I1257
tp206
a(I0
I1259
I1260
tp207
a(I0
I1262
I1264
tp208
a(I0
I1268
I1270
tp209
a(I0
I1276
I1277
tp210
a(I0
I1279
I1282
tp211
a(I0
I1284
I1285
tp212
a(I0
I1287
I1288
tp213
a(I0
I1290
I1292
tp214
a(I0
I1294
I1295
tp215
a(I0
I1299
I1302
tp216
a(I0
I1304
I1309
tp217
a(I0
I1313
I1314
tp218
a(I0
I1318
I1324
tp219
a(I0
I1326
I1328
tp220
a(I0
I1330
I1331
tp221
a(I0
I1333
I1334
tp222
a(I0
I1336
I1337
tp223
a(I0
I1339
I1344
tp224
a(I0
I1346
I1349
tp225
a(I0
I1351
I1354
tp226
a(I0
I1356
I1357
tp227
a(I0
I1359
I1370
tp228
a(I0
I1376
I1385
tp229
a(I0
I1387
I1396
tp230
a(I0
I1398
I1400
tp231
a(I0
I1402
I1403
tp232
a(I0
I1405
I1407
tp233
a(I0
I1411
I1419
tp234
a(I0
I1421
I1423
tp235
a(I0
I1431
I1432
tp236
a(I0
I1434
I1435
tp237
a(I0
I1437
I1438
tp238
a(I0
I1440
I1441
tp239
a(I0
I1443
I1444
tp240
a(I0
I1446
I1448
tp241
a(I0
I1450
I1451
tp242
a(I0
I1453
I1455
tp243
a(I0
I1457
I1459
tp244
a(I0
I1461
I1463
tp245
a(I0
I1465
I1467
tp246
a(I0
I1469
I1471
tp247
a(I0
I1473
I1476
tp248
a(I0
I1478
I1480
tp249
a(I0
I1482
I1486
tp250
a(I0
I1488
I1492
tp251
a(I0
I1496
I1501
tp252
a(I0
I1505
I1513
tp253
a(I0
I1515
I1517
tp254
a(I0
I1521
I1523
tp255
a(I0
I1525
I1537
tp256
a(I0
I1539
I1548
tp257
a(I0
I1550
I1552
tp258
a(I0
I1554
I1558
tp259
a(I0
I1560
I1564
tp260
a(I0
I1570
I1578
tp261
a(I0
I1580
I1585
tp262
a(I0
I1595
I1596
tp263
a(I0
I1604
I1605
tp264
a(I0
I1613
I1616
tp265
a(I0
I1618
I1619
tp266
a(I0
I1621
I1622
tp267
a(I0
I1624
I1625
tp268
a(I0
I1627
I1628
tp269
a(I0
I1630
I1632
tp270
a(I0
I1636
I1637
tp271
a(I0
I1639
I1640
tp272
a(I0
I1644
I1646
tp273
a(I0
I1650
I1660
tp274
a(I0
I1662
I1666
tp275
a(I0
I1668
I1673
tp276
a(I0
I1675
I1677
tp277
a(I0
I1679
I1684
tp278
a(I0
I1686
I1687
tp279
a(I0
I1689
I1690
tp280
a(I0
I1692
I1697
tp281
a(I0
I1699
I1700
tp282
a(I0
I1702
I1703
tp283
a(I0
I1705
I1714
tp284
a(I0
I1716
I1719
tp285
a(I0
I1721
I1728
tp286
a(I0
I1730
I1733
tp287
a(I0
I1735
I1736
tp288
a(I0
I1738
I1740
tp289
a(I0
I1742
I1743
tp290
a(I0
I1747
I1751
tp291
a(I0
I1753
I1762
tp292
a(I0
I1764
I1766
tp293
a(I0
I1768
I1769
tp294
a(I0
I1771
I1772
tp295
a(I0
I1774
I1780
tp296
a(I0
I1784
I1789
tp297
a(I0
I1791
I1793
tp298
a(I0
I1795
I1796
tp299
a(I0
I1798
I1804
tp300
a(I0
I1808
I1812
tp301
a(I0
I1814
I1816
tp302
a(I0
I1818
I1819
tp303
a(I0
I1821
I1822
tp304
a(I0
I1824
I1825
tp305
a(I0
I1827
I1829
tp306
a(I0
I1831
I1832
tp307
a(I0
I1834
I1835
tp308
a(I0
I1837
I1839
tp309
a(I0
I1841
I1843
tp310
a(I0
I1849
I1857
tp311
a(I0
I1859
I1870
tp312
a(I0
I1872
I1881
tp313
a(I0
I1883
I1893
tp314
a(I0
I1895
I1898
tp315
a(I0
I1900
I1904
tp316
a(I0
I1906
I1909
tp317
a(I0
I1911
I1915
tp318
a(I0
I1917
I1918
tp319
a(I0
I1920
I1924
tp320
a(I0
I1926
I1928
tp321
a(I0
I1930
I1938
tp322
a(I0
I1940
I1942
tp323
a(I0
I1944
I1946
tp324
a(I0
I1948
I1954
tp325
a(I0
I1956
I1957
tp326
a(I0
I1959
I1961
tp327
a(I0
I1963
I1967
tp328
a(I0
I1969
I1972
tp329
a(I0
I1974
I1977
tp330
a(I0
I1979
I1983
tp331
a(I0
I1985
I1987
tp332
a(I0
I1991
I1992
tp333
a(I0
I1996
I1997
tp334
a(I0
I1999
I2000
tp335
a(I0
I2002
I2009
tp336
a(I0
I2011
I2013
tp337
a(I0
I2015
I2016
tp338
a(I0
I2020
I2021
tp339
a(I0
I2023
I2025
tp340
a(I0
I2027
I2029
tp341
a(I0
I2035
I2051
tp342
a(I0
I2053
I2057
tp343
a(I0
I2059
I2062
tp344
a(I0
I2064
I2074
tp345
a(I0
I2076
I2082
tp346
a(I0
I2084
I2091
tp347
a(I0
I2093
I2099
tp348
a(I0
I2105
I2108
tp349
a(I0
I2110
I2112
tp350
a(I0
I2116
I2120
tp351
a(I0
I2122
I2123
tp352
a(I0
I2125
I2126
tp353
a(I0
I2130
I2133
tp354
a(I0
I2135
I2139
tp355
a(I0
I2141
I2145
tp356
a(I0
I2147
I2150
tp357
a(I0
I2152
I2155
tp358
a(I0
I2157
I2158
tp359
a(I0
I2164
I2194
tp360
a(I0
I2198
I2202
tp361
a(I0
I2204
I2206
tp362
a(I0
I2208
I2210
tp363
a(I0
I2212
I2214
tp364
a(I0
I2216
I2219
tp365
a(I0
I2221
I2223
tp366
a(I0
I2225
I2227
tp367
a(I0
I2229
I2235
tp368
a(I0
I2237
I2248
tp369
a(I0
I2250
I2252
tp370
a(I0
I2256
I2259
tp371
a(I0
I2261
I2265
tp372
a(I0
I2267
I2279
tp373
a(I0
I2285
I2309
tp374
a(I0
I2311
I2313
tp375
a(I0
I2315
I2316
tp376
a(I0
I2320
I2321
tp377
a(I0
I2323
I2324
tp378
a(I0
I2326
I2334
tp379
a(I0
I2336
I2337
tp380
a(I0
I2339
I2349
tp381
a(I0
I2351
I2354
tp382
a(I0
I2356
I2359
tp383
a(I0
I2361
I2365
tp384
a(I0
I2367
I2376
tp385
a(I0
I2378
I2381
tp386
a(I0
I2383
I2384
tp387
a(I0
I2386
I2389
tp388
a(I0
I2391
I2399
tp389
a(I0
I2405
I2420
tp390
a(I0
I2422
I2429
tp391
a(I0
I2431
I2443
tp392
a(I0
I2445
I2447
tp393
a(I0
I2449
I2451
tp394
a(I0
I2453
I2466
tp395
a(I0
I2468
I2473
tp396
a(I0
I2475
I2507
tp397
a(I0
I2509
I2510
tp398
a(I0
I2512
I2516
tp399
a(I0
I2518
I2548
tp400
a(I0
I2550
I2553
tp401
a(I0
I2555
I2562
tp402
a(I0
I2568
I2575
tp403
a(I0
I2577
I2587
tp404
a(I0
I2589
I2606
tp405
a(I0
I2608
I2613
tp406
a(I0
I2615
I2620
tp407
a(I0
I2622
I2624
tp408
a(I0
I2626
I2639
tp409
a(I0
I2641
I2643
tp410
a(I0
I2645
I2649
tp411
a(I0
I2653
I2655
tp412
a(I0
I2657
I2659
tp413
a(I0
I2661
I2666
tp414
a(I0
I2668
I2671
tp415
a(I0
I2673
I2677
tp416
a(I0
I2679
I2680
tp417
a(I0
I2682
I2683
tp418
a(I0
I2685
I2687
tp419
a(I0
I2689
I2700
tp420
a(I0
I2702
I2703
tp421
a(I0
I2705
I2708
tp422
a(I0
I2710
I2721
tp423
a(I0
I2725
I2729
tp424
a(I0
I2731
I2732
tp425
a(I0
I2734
I2745
tp426
a(I0
I2749
I2750
tp427
a(I0
I2752
I2753
tp428
a(I0
I2755
I2756
tp429
a(I0
I2758
I2763
tp430
a(I0
I2765
I2769
tp431
a(I0
I2771
I2774
tp432
a(I0
I2776
I2777
tp433
a(I0
I2779
I2784
tp434
a(I0
I2786
I2797
tp435
a(I0
I2799
I2802
tp436
a(I0
I2804
I2808
tp437
a(I0
I2812
I2820
tp438
a(I0
I2824
I2831
tp439
a(I0
I2833
I2834
tp440
a(I0
I2836
I2839
tp441
a(I0
I2843
I2844
tp442
a(I0
I2846
I2852
tp443
a(I0
I2854
I2861
tp444
a(I0
I2863
I2868
tp445
a(I0
I2870
I2872
tp446
a(I0
I2874
I2876
tp447
a(I0
I2878
I2879
tp448
a(I0
I2881
I2883
tp449
a(I0
I2885
I2886
tp450
a(I0
I2888
I2891
tp451
a(I0
I2893
I2896
tp452
a(I0
I2898
I2905
tp453
a(I0
I2907
I2922
tp454
a(I0
I2928
I2938
tp455
a(I0
I2940
I2944
tp456
a(I0
I2946
I2949
tp457
a(I0
I2951
I2957
tp458
a(I0
I2959
I2963
tp459
a(I0
I2965
I2966
tp460
a(I0
I2970
I2972
tp461
a(I0
I2974
I2985
tp462
a(I0
I2987
I3000
tp463
a(I0
I3002
I3006
tp464
a(I0
I3008
I3015
tp465
a(I0
I3017
I3024
tp466
a(I0
I3026
I3044
tp467
a(I0
I3046
I3055
tp468
a(I0
I3061
I3077
tp469
a(I0
I3079
I3088
tp470
a(I0
I3090
I3100
tp471
a(I0
I3102
I3109
tp472
a(I0
I3113
I3115
tp473
a(I0
I3117
I3132
tp474
a(I0
I3134
I3135
tp475
a(I0
I3137
I3139
tp476
a(I0
I3143
I3146
tp477
a(I0
I3148
I3149
tp478
a(I0
I3151
I3155
tp479
a(I0
I3157
I3159
tp480
a(I0
I3163
I3167
tp481
a(I0
I3169
I3174
tp482
a(I0
I3176
I3178
tp483
a(I0
I3180
I3184
tp484
a(I0
I3186
I3194
tp485
a(I0
I3196
I3201
tp486
a(I0
I3203
I3206
tp487
a(I0
I3210
I3211
tp488
a(I0
I3213
I3214
tp489
a(I0
I3216
I3217
tp490
a(I0
I3219
I3220
tp491
a(I0
I3222
I3227
tp492
a(I0
I3235
I3236
tp493
a(I0
I3240
I3241
tp494
a(I0
I3245
I3246
tp495
a(I0
I3248
I3251
tp496
a(I0
I3253
I3254
tp497
a(I0
I3256
I3261
tp498
a(I0
I3263
I3264
tp499
a(I0
I3266
I3282
tp500
a(I0
I3284
I3287
tp501
a(I0
I3289
I3290
tp502
a(I0
I3292
I3301
tp503
a(I0
I3303
I3306
tp504
a(I0
I3308
I3316
tp505
a(I0
I3322
I3323
tp506
a(I0
I3325
I3327
tp507
a(I0
I3329
I3334
tp508
a(I0
I3336
I3344
tp509
a(I0
I3346
I3355
tp510
a(I0
I3359
I3361
tp511
a(I0
I3363
I3370
tp512
a(I0
I3372
I3397
tp513
a(I0
I3399
I3404
tp514
a(I0
I3406
I3435
tp515
a(I0
I3437
I3441
tp516
a(I0
I3443
I3445
tp517
a(I0
I3447
I3449
tp518
a(I0
I3451
I3458
tp519
a(I0
I3460
I3484
tp520
a(I0
I3486
I3488
tp521
a(I0
I3490
I3511
tp522
a(I0
I3513
I3522
tp523
a(I0
I3524
I3534
tp524
a(I0
I3536
I3540
tp525
a(I0
I3542
I3558
tp526
a(I0
I3560
I3567
tp527
a(I0
I3569
I3577
tp528
a(I0
I3583
I3591
tp529
a(I0
I3593
I3595
tp530
a(I0
I3597
I3601
tp531
a(I0
I3603
I3605
tp532
a(I0
I3607
I3610
tp533
a(I0
I3612
I3617
tp534
a(I0
I3619
I3630
tp535
a(I0
I3632
I3635
tp536
a(I0
I3637
I3675
tp537
a(I0
I3679
I3683
tp538
a(I0
I3685
I3690
tp539
a(I0
I3692
I3700
tp540
a(I0
I3702
I3706
tp541
a(I0
I3708
I3717
tp542
a(I0
I3719
I3725
tp543
a(I0
I3727
I3730
tp544
a(I0
I3732
I3745
tp545
a(I0
I3747
I3754
tp546
a(I0
I3756
I3759
tp547
a(I0
I3761
I3766
tp548
a(I0
I3772
I3783
tp549
a(I0
I3785
I3788
tp550
a(I0
I3790
I3793
tp551
a(I0
I3795
I3801
tp552
a(I0
I3803
I3806
tp553
a(I0
I3808
I3812
tp554
a(I0
I3814
I3816
tp555
a(I0
I3818
I3819
tp556
a(I0
I3821
I3822
tp557
a(I0
I3826
I3827
tp558
a(I0
I3831
I3832
tp559
a(I0
I3834
I3837
tp560
a(I0
I3841
I3842
tp561
a(I0
I3846
I3849
tp562
a(I0
I3851
I3853
tp563
a(I0
I3855
I3856
tp564
a(I0
I3858
I3861
tp565
a(I0
I3863
I3869
tp566
a(I0
I3871
I3875
tp567
a(I0
I3877
I3881
tp568
a(I0
I3883
I3890
tp569
a(I0
I3894
I3906
tp570
a(I0
I3908
I3915
tp571
a(I0
I3917
I3923
tp572
a(I0
I3925
I3943
tp573
a(I0
I3949
I3959
tp574
a(I0
I3961
I3965
tp575
a(I0
I3967
I3972
tp576
a(I0
I3974
I3977
tp577
a(I0
I3979
I3985
tp578
a(I0
I3987
I3997
tp579
a(I0
I3999
I4002
tp580
a(I0
I4004
I4018
tp581
a(I0
I4020
I4026
tp582
a(I0
I4028
I4029
tp583
a(I0
I4031
I4042
tp584
a(I0
I4044
I4045
tp585
a(I0
I4049
I4051
tp586
a(I0
I4053
I4068
tp587
a(I0
I4070
I4075
tp588
a(I0
I4081
I4084
tp589
a(I0
I4088
I4101
tp590
a(I0
I4103
I4107
tp591
a(I0
I4109
I4111
tp592
a(I0
I4113
I4115
tp593
a(I0
I4117
I4120
tp594
a(I0
I4122
I4124
tp595
a(I0
I4126
I4127
tp596
a(I0
I4129
I4130
tp597
a(I0
I4132
I4136
tp598
a(I0
I4138
I4142
tp599
a(I0
I4144
I4153
tp600
a(I0
I4159
I4184
tp601
a(I0
I4186
I4195
tp602
a(I0
I4197
I4232
tp603
a(I0
I4234
I4238
tp604
a(I0
I4240
I4243
tp605
a(I0
I4245
I4246
tp606
a(I0
I4248
I4250
tp607
a(I0
I4252
I4254
tp608
a(I0
I4256
I4259
tp609
a(I0
I4261
I4267
tp610
a(I0
I4269
I4279
tp611
a(I0
I4281
I4286
tp612
a(I0
I4290
I4293
tp613
a(I0
I4295
I4297
tp614
a(I0
I4299
I4302
tp615
a(I0
I4304
I4311
tp616
a(I0
I4313
I4326
tp617
a(I0
I4332
I4341
tp618
a(I0
I4343
I4344
tp619
a(I0
I4346
I4350
tp620
a(I0
I4352
I4359
tp621
a(I0
I4361
I4375
tp622
a(I0
I4377
I4381
tp623
a(I0
I4383
I4388
tp624
a(I0
I4390
I4394
tp625
a(I0
I4396
I4403
tp626
a(I0
I4405
I4419
tp627
a(I0
I4421
I4429
tp628
a(I0
I4431
I4436
tp629
a(I0
I4438
I4445
tp630
a(I0
I4447
I4455
tp631
a(I0
I4457
I4463
tp632
a(I0
I4465
I4474
tp633
a(I0
I4476
I4478
tp634
a(I0
I4480
I4481
tp635
a(I0
I4483
I4484
tp636
a(I0
I4486
I4487
tp637
a(I0
I4493
I4494
tp638
a(I0
I4496
I4499
tp639
a(I0
I4507
I4512
tp640
a(I0
I4514
I4522
tp641
a(I0
I4524
I4543
tp642
a(I0
I4545
I4548
tp643
a(I0
I4550
I4553
tp644
a(I0
I4555
I4556
tp645
a(I0
I4558
I4562
tp646
a(I0
I4564
I4566
tp647
a(I0
I4568
I4571
tp648
a(I0
I4573
I4574
tp649
a(I0
I4576
I4587
tp650
a(I0
I4589
I4595
tp651
a(I0
I4597
I4607
tp652
a(I0
I4609
I4618
tp653
a(I0
I4622
I4623
tp654
a(I0
I4625
I4629
tp655
a(I0
I4633
I4634
tp656
a(I0
I4640
I4642
tp657
a(I0
I4644
I4647
tp658
a(I0
I4649
I4661
tp659
a(I0
I4663
I4664
tp660
a(I0
I4666
I4674
tp661
a(I0
I4676
I4683
tp662
a(I0
I4685
I4686
tp663
a(I0
I4688
I4690
tp664
a(I0
I4692
I4699
tp665
a(I0
I4701
I4705
tp666
a(I0
I4711
I4720
tp667
a(I0
I4722
I4732
tp668
a(I0
I4734
I4740
tp669
a(I0
I4742
I4754
tp670
a(I0
I4756
I4759
tp671
a(I0
I4761
I4766
tp672
a(I0
I4768
I4772
tp673
a(I0
I4774
I4778
tp674
a(I0
I4780
I4785
tp675
a(I0
I4787
I4793
tp676
a(I0
I4795
I4796
tp677
a(I0
I4798
I4802
tp678
a(I0
I4804
I4810
tp679
a(I0
I4812
I4813
tp680
a(I0
I4817
I4824
tp681
a(I0
I4826
I4830
tp682
a(I0
I4832
I4844
tp683
a(I0
I4846
I4853
tp684
a(I0
I4855
I4864
tp685
a(I0
I4870
I4873
tp686
a(I0
I4875
I4884
tp687
a(I0
I4890
I4892
tp688
a(I0
I4896
I4911
tp689
a(I0
I4913
I4914
tp690
a(I0
I4916
I4922
tp691
a(I0
I4924
I4926
tp692
a(I0
I4928
I4937
tp693
a(I0
I4947
I4948
tp694
a(I0
I4950
I4951
tp695
a(I0
I4953
I4955
tp696
a(I0
I4957
I4975
tp697
a(I0
I4977
I4979
tp698
a(I0
I4981
I4985
tp699
a(I0
I4987
I4988
tp700
a(I0
I4990
I4998
tp701
a(I0
I5000
I5001
tp702
a(I0
I5003
I5010
tp703
a(I0
I5012
I5048
tp704
a(I0
I5050
I5057
tp705
a(I0
I5059
I5074
tp706
a(I0
I5076
I5090
tp707
a(I0
I5096
I5113
tp708
a(I0
I5115
I5117
tp709
a(I0
I5119
I5129
tp710
a(I0
I5131
I5138
tp711
a(I0
I5140
I5150
tp712
a(I0
I5152
I5160
tp713
a(I0
I5162
I5163
tp714
a(I0
I5165
I5166
tp715
a(I0
I5168
I5173
tp716
a(I0
I5175
I5176
tp717
a(I0
I5180
I5181
tp718
a(I0
I5183
I5186
tp719
a(I0
I5188
I5189
tp720
a(I0
I5191
I5193
tp721
a(I0
I5195
I5196
tp722
a(I0
I5198
I5199
tp723
a(I0
I5201
I5202
tp724
a(I0
I5204
I5209
tp725
a(I0
I5213
I5215
tp726
a(I0
I5217
I5218
tp727
a(I0
I5220
I5232
tp728
a(I0
I5238
I5242
tp729
a(I0
I5244
I5247
tp730
a(I0
I5249
I5265
tp731
a(I0
I5267
I5294
tp732
a(I0
I5296
I5306
tp733
a(I0
I5308
I5310
tp734
a(I0
I5312
I5321
tp735
a(I0
I5323
I5324
tp736
a(I0
I5326
I5327
tp737
a(I0
I5329
I5337
tp738
a(I0
I5339
I5344
tp739
a(I0
I5346
I5348
tp740
a(I0
I5350
I5353
tp741
a(I0
I5355
I5357
tp742
a(I0
I5359
I5362
tp743
a(I0
I5364
I5365
tp744
a(I0
I5367
I5368
tp745
a(I0
I5370
I5372
tp746
a(I0
I5374
I5378
tp747
a(I0
I5380
I5384
tp748
a(I0
I5390
I5396
tp749
a(I0
I5398
I5404
tp750
a(I0
I5406
I5409
tp751
a(I0
I5411
I5414
tp752
a(I0
I5418
I5424
tp753
a(I0
I5426
I5432
tp754
a(I0
I5434
I5440
tp755
a(I0
I5442
I5447
tp756
a(I0
I5449
I5456
tp757
a(I0
I5458
I5471
tp758
a(I0
I5473
I5482
tp759
a(I0
I5484
I5487
tp760
a(I0
I5489
I5506
tp761
a(I0
I5508
I5528
tp762
a(I0
I5530
I5534
tp763
a(I0
I5538
I5540
tp764
a(I0
I5544
I5546
tp765
a(I0
I5554
I5555
tp766
a(I0
I5563
I5565
tp767
a(I0
I5567
I5568
tp768
a(I0
I5570
I5571
tp769
a(I0
I5573
I5576
tp770
a(I0
I5578
I5590
tp771
a(I0
I5594
I5596
tp772
a(I0
I5598
I5604
tp773
a(I0
I5606
I5607
tp774
a(I0
I5609
I5610
tp775
a(I0
I5612
I5614
tp776
a(I0
I5616
I5617
tp777
a(I0
I5621
I5634
tp778
a(I0
I5636
I5648
tp779
a(I0
I5654
I5671
tp780
a(I0
I5673
I5679
tp781
a(I0
I5681
I5691
tp782
a(I0
I5693
I5699
tp783
a(I0
I5701
I5713
tp784
a(I0
I5715
I5727
tp785
a(I0
I5729
I5739
tp786
a(I0
I5741
I5742
tp787
a(I0
I5744
I5752
tp788
a(I0
I5754
I5760
tp789
a(I0
I5762
I5763
tp790
a(I0
I5765
I5770
tp791
a(I0
I5776
I5787
tp792
a(I0
I5789
I5794
tp793
a(I0
I5796
I5806
tp794
a(I0
I5808
I5809
tp795
a(I0
I5811
I5812
tp796
a(I0
I5814
I5820
tp797
a(I0
I5824
I5826
tp798
a(I0
I5828
I5829
tp799
a(I0
I5831
I5839
tp800
a(I0
I5841
I5842
tp801
a(I0
I5844
I5851
tp802
a(I0
I5853
I5857
tp803
a(I0
I5859
I5863
tp804
a(I0
I5865
I5873
tp805
a(I0
I5877
I5878
tp806
a(I0
I5880
I5885
tp807
a(I0
I5887
I5888
tp808
a(I0
I5890
I5891
tp809
a(I0
I5893
I5894
tp810
a(I0
I5896
I5899
tp811
a(I0
I5901
I5902
tp812
a(I0
I5904
I5907
tp813
a(I0
I5909
I5914
tp814
a(I0
I5916
I5918
tp815
a(I0
I5920
I5923
tp816
a(I0
I5925
I5928
tp817
a(I0
I5930
I5934
tp818
a(I0
I5936
I5940
tp819
a(I0
I5946
I5954
tp820
a(I0
I5956
I5958
tp821
a(I0
I5960
I5965
tp822
a(I0
I5967
I5970
tp823
a(I0
I5974
I5975
tp824
a(I0
I5977
I5978
tp825
a(I0
I5980
I5983
tp826
a(I0
I5985
I5990
tp827
a(I0
I5992
I5993
tp828
a(I0
I5995
I5997
tp829
a(I0
I5999
I6001
tp830
a(I0
I6003
I6004
tp831
a(I0
I6008
I6013
tp832
a(I0
I6015
I6016
tp833
a(I0
I6020
I6021
tp834
a(I0
I6023
I6025
tp835
a(I0
I6027
I6028
tp836
a(I0
I6030
I6032
tp837
a(I0
I6034
I6041
tp838
a(I0
I6043
I6045
tp839
a(I0
I6047
I6049
tp840
a(I0
I6053
I6058
tp841
a(I0
I6060
I6062
tp842
a(I0
I6064
I6081
tp843
a(I0
I6083
I6098
tp844
a(I0
I6100
I6105
tp845
a(I0
I6107
I6112
tp846
a(I0
I6118
I6139
tp847
a(I0
I6141
I6145
tp848
a(I0
I6149
I6151
tp849
a(I0
I6155
I6156
tp850
a(I0
I6160
I6161
tp851
a(I0
I6163
I6165
tp852
a(I0
I6167
I6171
tp853
a(I0
I6173
I6176
tp854
a(I0
I6178
I6181
tp855
a(I0
I6183
I6184
tp856
a(I0
I6186
I6188
tp857
a(I0
I6190
I6193
tp858
a(I0
I6195
I6197
tp859
a(I0
I6199
I6203
tp860
a(I0
I6205
I6206
tp861
a(I0
I6208
I6211
tp862
a(I0
I6213
I6216
tp863
a(I0
I6218
I6221
tp864
a(I0
I6223
I6224
tp865
a(I0
I6226
I6227
tp866
a(I0
I6229
I6233
tp867
a(I0
I6237
I6239
tp868
a(I0
I6243
I6249
tp869
a(I0
I6253
I6254
tp870
a(I0
I6258
I6259
tp871
a(I0
I6261
I6263
tp872
a(I0
I6265
I6266
tp873
a(I0
I6270
I6275
tp874
a(I0
I6277
I6278
tp875
a(I0
I6280
I6295
tp876
a(I0
I6297
I6300
tp877
a(I0
I6302
I6314
tp878
a(I0
I6316
I6323
tp879
a(I0
I6329
I6346
tp880
a(I0
I6348
I6351
tp881
a(I0
I6353
I6364
tp882
a(I0
I6366
I6368
tp883
a(I0
I6370
I6379
tp884
a(I0
I6381
I6394
tp885
a(I0
I6396
I6405
tp886
a(I0
I6407
I6413
tp887
a(I0
I6415
I6417
tp888
a(I0
I6419
I6427
tp889
a(I0
I6429
I6431
tp890
a(I0
I6433
I6439
tp891
a(I0
I6441
I6443
tp892
a(I0
I6447
I6450
tp893
a(I0
I6452
I6453
tp894
a(I0
I6455
I6460
tp895
a(I0
I6462
I6463
tp896
a(I0
I6465
I6466
tp897
a(I0
I6468
I6469
tp898
a(I0
I6471
I6477
tp899
a(I0
I6479
I6493
tp900
a(I0
I6495
I6496
tp901
a(I0
I6498
I6501
tp902
a(I0
I6505
I6506
tp903
a(I0
I6508
I6509
tp904
a(I0
I6511
I6517
tp905
a(I0
I6519
I6522
tp906
a(I0
I6524
I6525
tp907
a(I0
I6527
I6544
tp908
a(I0
I6550
I6560
tp909
a(I0
I6562
I6577
tp910
a(I0
I6579
I6584
tp911
a(I0
I6586
I6595
tp912
a(I0
I6597
I6614
tp913
a(I0
I6616
I6664
tp914
a(I0
I6666
I6695
tp915
a(I0
I6697
I6701
tp916
a(I0
I6703
I6722
tp917
a(I0
I6724
I6760
tp918
a(I0
I6762
I6787
tp919
a(I0
I6789
I6796
tp920
a(I0
I6798
I6809
tp921
a(I0
I6817
I6835
tp922
a(I0
I6837
I6847
tp923
a(I0
I6849
I6872
tp924
a(I0
I6874
I6904
tp925
a(I0
I6906
I6920
tp926
a(I0
I6922
I6944
tp927
a(I0
I6946
I6948
tp928
a(I0
I6950
I6959
tp929
a(I0
I6961
I6971
tp930
a(I0
I6973
I6979
tp931
a(I0
I6981
I6987
tp932
a(I0
I6989
I6995
tp933
a(I0
I6997
I7003
tp934
a(I0
I7009
I7018
tp935
a(I0
I7020
I7024
tp936
a(I0
I7026
I7033
tp937
a(I0
I7035
I7036
tp938
a(I0
I7038
I7040
tp939
a(I0
I7042
I7044
tp940
a(I0
I7046
I7048
tp941
a(I0
I7050
I7053
tp942
a(I0
I7057
I7063
tp943
a(I0
I7065
I7066
tp944
a(I0
I7068
I7080
tp945
a(I0
I7084
I7087
tp946
a(I0
I7089
I7096
tp947
a(I0
I7098
I7121
tp948
a(I0
I7123
I7130
tp949
a(I0
I7132
I7135
tp950
a(I0
I7137
I7143
tp951
a(I0
I7145
I7148
tp952
a(I0
I7154
I7157
tp953
a(I0
I7159
I7168
tp954
a(I0
I7170
I7174
tp955
a(I0
I7176
I7187
tp956
a(I0
I7189
I7191
tp957
a(I0
I7193
I7203
tp958
a(I0
I7205
I7213
tp959
a(I0
I7215
I7224
tp960
a(I0
I7226
I7228
tp961
a(I0
I7230
I7231
tp962
a(I0
I7233
I7235
tp963
a(I0
I7239
I7240
tp964
a(I0
I7244
I7246
tp965
a(I0
I7248
I7251
tp966
a(I0
I7253
I7262
tp967
a(I0
I7268
I7276
tp968
a(I0
I7278
I7280
tp969
a(I0
I7282
I7287
tp970
a(I0
I7289
I7294
tp971
a(I0
I7298
I7302
tp972
a(I0
I7304
I7307
tp973
a(I0
I7309
I7311
tp974
a(I0
I7313
I7314
tp975
a(I0
I7316
I7322
tp976
a(I0
I7324
I7325
tp977
a(I0
I7331
I7333
tp978
a(I0
I7335
I7337
tp979
a(I0
I7339
I7342
tp980
a(I0
I7344
I7369
tp981
a(I0
I7371
I7374
tp982
a(I0
I7376
I7378
tp983
a(I0
I7382
I7390
tp984
a(I0
I7392
I7401
tp985
a(I0
I7403
I7406
tp986
a(I0
I7408
I7409
tp987
a(I0
I7411
I7419
tp988
a(I0
I7421
I7426
tp989
a(I0
I7432
I7437
tp990
a(I0
I7439
I7444
tp991
a(I0
I7446
I7448
tp992
a(I0
I7450
I7452
tp993
a(I0
I7460
I7461
tp994
a(I0
I7463
I7470
tp995
a(I0
I7472
I7477
tp996
a(I0
I7481
I7486
tp997
a(I0
I7488
I7492
tp998
a(I0
I7494
I7495
tp999
a(I0
I7497
I7499
tp1000
a(I0
I7501
I7502
tp1001
a(I0
I7504
I7508
tp1002
a(I0
I7510
I7511
tp1003
a(I0
I7513
I7516
tp1004
a(I0
I7518
I7520
tp1005
a(I0
I7522
I7526
tp1006
a(I0
I7528
I7529
tp1007
a(I0
I7531
I7541
tp1008
a(I0
I7543
I7545
tp1009
a(I0
I7547
I7559
tp1010
a(I0
I7561
I7570
tp1011
a(I0
I7572
I7579
tp1012
a(I0
I7583
I7586
tp1013
a(I0
I7588
I7589
tp1014
a(I0
I7591
I7596
tp1015
a(I0
I7600
I7604
tp1016
a(I0
I7608
I7611
tp1017
a(I0
I7617
I7625
tp1018
a(I0
I7627
I7629
tp1019
a(I0
I7631
I7633
tp1020
a(I0
I7635
I7636
tp1021
a(I0
I7642
I7643
tp1022
a(I0
I7647
I7648
tp1023
a(I0
I7650
I7654
tp1024
a(I0
I7656
I7661
tp1025
a(I0
I7663
I7669
tp1026
a(I0
I7671
I7673
tp1027
a(I0
I7675
I7685
tp1028
a(I0
I7687
I7690
tp1029
a(I0
I7692
I7695
tp1030
a(I0
I7697
I7701
tp1031
a(I0
I7703
I7721
tp1032
a(I0
I7723
I7724
tp1033
a(I0
I7726
I7737
tp1034
a(I0
I7739
I7744
tp1035
a(I0
I7746
I7756
tp1036
a(I0
I7758
I7762
tp1037
a(I0
I7764
I7766
tp1038
a(I0
I7768
I7781
tp1039
a(I0
I7783
I7788
tp1040
a(I0
I7790
I7794
tp1041
a(I0
I7808
I7812
tp1042
a(I0
I7814
I7815
tp1043
a(I0
I7817
I7820
tp1044
a(I0
I7822
I7824
tp1045
a(I0
I7826
I7829
tp1046
a(I0
I7831
I7841
tp1047
a(I0
I7843
I7849
tp1048
a(I0
I7851
I7860
tp1049
a(I0
I7866
I7883
tp1050
a(I0
I7885
I7896
tp1051
a(I0
I7898
I7918
tp1052
a(I0
I7920
I7926
tp1053
a(I0
I7928
I7938
tp1054
a(I0
I7940
I7950
tp1055
a(I0
I7952
I7967
tp1056
a(I0
I7969
I7972
tp1057
a(I0
I7974
I7977
tp1058
a(I0
I7979
I7986
tp1059
a(I0
I7988
I7994
tp1060
a(I0
I7996
I8008
tp1061
a(I0
I8010
I8013
tp1062
a(I0
I8015
I8018
tp1063
a(I0
I8020
I8023
tp1064
a(I0
I8025
I8031
tp1065
a(I0
I8033
I8041
tp1066
a(I0
I8047
I8050
tp1067
a(I0
I8052
I8054
tp1068
a(I0
I8056
I8069
tp1069
a(I0
I8071
I8076
tp1070
a(I0
I8078
I8092
tp1071
a(I0
I8094
I8099
tp1072
a(I0
I8101
I8102
tp1073
a(I0
I8104
I8109
tp1074
a(I0
I8111
I8117
tp1075
a(I0
I8119
I8120
tp1076
a(I0
I8122
I8124
tp1077
a(I0
I8126
I8128
tp1078
a(I0
I8130
I8131
tp1079
a(I0
I8141
I8144
tp1080
a(I0
I8148
I8149
tp1081
a(I0
I8153
I8156
tp1082
a(I0
I8158
I8161
tp1083
a(I0
I8165
I8166
tp1084
a(I0
I8172
I8173
tp1085
a(I0
I8175
I8176
tp1086
a(I0
I8178
I8182
tp1087
a(I0
I8184
I8187
tp1088
a(I0
I8189
I8190
tp1089
a(I0
I8192
I8196
tp1090
a(I0
I8202
I8203
tp1091
a(I0
I8205
I8211
tp1092
a(I0
I8213
I8218
tp1093
a(I0
I8222
I8223
tp1094
a(I0
I8229
I8233
tp1095
a(I0
I8235
I8236
tp1096
a(I0
I8238
I8241
tp1097
a(I0
I8243
I8248
tp1098
a(I0
I8250
I8258
tp1099
a(I0
I8260
I8272
tp1100
a(I0
I8274
I8276
tp1101
a(I0
I8278
I8281
tp1102
a(I0
I8283
I8289
tp1103
a(I0
I8291
I8308
tp1104
a(I0
I8310
I8312
tp1105
a(I0
I8314
I8332
tp1106
a(I0
I8334
I8348
tp1107
a(I0
I8350
I8351
tp1108
a(I0
I8353
I8392
tp1109
a(I0
I8394
I8401
tp1110
a(I0
I8403
I8414
tp1111
a(I0
I8416
I8427
tp1112
a(I0
I8429
I8446
tp1113
a(I0
I8448
I8451
tp1114
a(I0
I8453
I8456
tp1115
a(I0
I8458
I8463
tp1116
a(I0
I8465
I8470
tp1117
a(I0
I8472
I8483
tp1118
a(I0
I8485
I8487
tp1119
a(I0
I8489
I8492
tp1120
a(I0
I8494
I8496
tp1121
a(I0
I8498
I8501
tp1122
a(I0
I8503
I8505
tp1123
a(I0
I8507
I8510
tp1124
a(I0
I8512
I8513
tp1125
a(I0
I8515
I8524
tp1126
a(I0
I8526
I8534
tp1127
a(I0
I8536
I8543
tp1128
a(I0
I8545
I8548
tp1129
a(I0
I8554
I8577
tp1130
a(I0
I8579
I8581
tp1131
a(I0
I8583
I8589
tp1132
a(I0
I8591
I8597
tp1133
a(I0
I8599
I8607
tp1134
a(I0
I8609
I8617
tp1135
a(I0
I8619
I8624
tp1136
a(I0
I8626
I8643
tp1137
a(I0
I8645
I8649
tp1138
a(I0
I8651
I8670
tp1139
a(I0
I8672
I8683
tp1140
a(I0
I8685
I8694
tp1141
a(I0
I8696
I8700
tp1142
a(I0
I8702
I8716
tp1143
a(I0
I8718
I8722
tp1144
a(I0
I8724
I8754
tp1145
a(I0
I8756
I8763
tp1146
a(I0
I8765
I8767
tp1147
a(I0
I8773
I8777
tp1148
a(I0
I8779
I8783
tp1149
a(I0
I8785
I8791
tp1150
a(I0
I8793
I8801
tp1151
a(I0
I8803
I8815
tp1152
a(I0
I8817
I8824
tp1153
a(I0
I8826
I8830
tp1154
a(I0
I8832
I8849
tp1155
a(I0
I8851
I8852
tp1156
a(I0
I8854
I8876
tp1157
a(I0
I8878
I8884
tp1158
a(I0
I8886
I8894
tp1159
a(I0
I8896
I8899
tp1160
a(I0
I8901
I8904
tp1161
a(I0
I8906
I8914
tp1162
a(I0
I8916
I8920
tp1163
a(I0
I8922
I8927
tp1164
a(I0
I8929
I8931
tp1165
a(I0
I8933
I8934
tp1166
a(I0
I8936
I8943
tp1167
a(I0
I8949
I8956
tp1168
a(I0
I8958
I8964
tp1169
a(I0
I8966
I8987
tp1170
a(I0
I8989
I8992
tp1171
a(I0
I8994
I9044
tp1172
a(I0
I9046
I9054
tp1173
a(I0
I9056
I9059
tp1174
a(I0
I9061
I9065
tp1175
a(I0
I9067
I9071
tp1176
a(I0
I9073
I9075
tp1177
a(I0
I9077
I9085
tp1178
a(I0
I9087
I9091
tp1179
a(I0
I9093
I9094
tp1180
a(I0
I9096
I9098
tp1181
a(I0
I9102
I9106
tp1182
a(I0
I9110
I9112
tp1183
a(I0
I9114
I9123
tp1184
a(I0
I9125
I9138
tp1185
a(I0
I9140
I9142
tp1186
a(I0
I9144
I9147
tp1187
a(I0
I9149
I9155
tp1188
a(I0
I9157
I9179
tp1189
a(I0
I9181
I9188
tp1190
a(I0
I9190
I9209
tp1191
a(I0
I9211
I9212
tp1192
a(I0
I9214
I9216
tp1193
a(I0
I9218
I9228
tp1194
a(I0
I9234
I9244
tp1195
a(I0
I9248
I9252
tp1196
a(I0
I9254
I9257
tp1197
a(I0
I9259
I9260
tp1198
a(I0
I9262
I9264
tp1199
a(I0
I9266
I9270
tp1200
a(I0
I9272
I9287
tp1201
a(I0
I9289
I9290
tp1202
a(I0
I9292
I9305
tp1203
a(I0
I9307
I9308
tp1204
a(I0
I9310
I9315
tp1205
a(I0
I9317
I9318
tp1206
a(I0
I9320
I9329
tp1207
a(I0
I9331
I9332
tp1208
a(I0
I9334
I9346
tp1209
a(I0
I9348
I9349
tp1210
a(I0
I9351
I9359
tp1211
a(I0
I9363
I9368
tp1212
a(I0
I9370
I9373
tp1213
a(I0
I9375
I9379
tp1214
a(I0
I9381
I9383
tp1215
a(I0
I9385
I9387
tp1216
a(I0
I9389
I9390
tp1217
a(I0
I9398
I9401
tp1218
a(I0
I9405
I9408
tp1219
a(I0
I9410
I9411
tp1220
a(I0
I9413
I9417
tp1221
a(I0
I9419
I9425
tp1222
a(I0
I9427
I9432
tp1223
a(I0
I9434
I9445
tp1224
a(I0
I9447
I9450
tp1225
a(I0
I9452
I9459
tp1226
a(I0
I9461
I9473
tp1227
a(I0
I9475
I9479
tp1228
a(I0
I9481
I9487
tp1229
a(I0
I9489
I9497
tp1230
a(I0
I9499
I9501
tp1231
a(I0
I9503
I9508
tp1232
a(I0
I9510
I9512
tp1233
a(I0
I9514
I9523
tp1234
a(I0
I9525
I9530
tp1235
a(I0
I9532
I9533
tp1236
a(I0
I9535
I9538
tp1237
a(I0
I9540
I9541
tp1238
a(I0
I9543
I9550
tp1239
a(I0
I9556
I9557
tp1240
a(I0
I9559
I9562
tp1241
a(I0
I9564
I9565
tp1242
a(I0
I9567
I9569
tp1243
a(I0
I9571
I9572
tp1244
a(I0
I9576
I9577
tp1245
a(I0
I9581
I9596
tp1246
a(I0
I9602
I9606
tp1247
a(I0
I9608
I9610
tp1248
a(I0
I9612
I9613
tp1249
a(I0
I9615
I9619
tp1250
a(I0
I9621
I9623
tp1251
a(I0
I9625
I9633
tp1252
a(I0
I9635
I9638
tp1253
a(I0
I9640
I9641
tp1254
a(I0
I9643
I9655
tp1255
a(I0
I9661
I9668
tp1256
a(I0
I9670
I9674
tp1257
a(I0
I9676
I9684
tp1258
a(I0
I9686
I9698
tp1259
a(I0
I9700
I9711
tp1260
a(I0
I9713
I9722
tp1261
a(I0
I9724
I9731
tp1262
a(I0
I9733
I9737
tp1263
a(I0
I9739
I9744
tp1264
a(I0
I9748
I9776
tp1265
a(I0
I9780
I9796
tp1266
a(I0
I9798
I9805
tp1267
a(I0
I9807
I9809
tp1268
a(I0
I9811
I9814
tp1269
a(I0
I9816
I9821
tp1270
a(I0
I9823
I9829
tp1271
a(I0
I9831
I9835
tp1272
a(I0
I9837
I9841
tp1273
a(I0
I9845
I9848
tp1274
a(I0
I9856
I9857
tp1275
a(I0
I9861
I9862
tp1276
a(I0
I9864
I9865
tp1277
a(I0
I9867
I9870
tp1278
a(I0
I9872
I9873
tp1279
a(I0
I9875
I9881
tp1280
a(I0
I9885
I9887
tp1281
a(I0
I9893
I9900
tp1282
a(I0
I9904
I9906
tp1283
a(I0
I9908
I9912
tp1284
a(I0
I9914
I9915
tp1285
a(I0
I9917
I9919
tp1286
a(I0
I9921
I9923
tp1287
a(I0
I9931
I9932
tp1288
a(I0
I9936
I9937
tp1289
a(I0
I9943
I9947
tp1290
a(I0
I9953
I9977
tp1291
a(I0
I9981
I9982
tp1292
a(I0
I9984
I9985
tp1293
a(I0
I9991
I9992
tp1294
a(I0
I9994
I9995
tp1295
a(I0
I9997
I9998
tp1296
a(I0
I10004
I10005
tp1297
a(I0
I10011
I10014
tp1298
a(I0
I10018
I10020
tp1299
a(I0
I10022
I10025
tp1300
a(I0
I10027
I10029
tp1301
a(I0
I10031
I10032
tp1302
a(I0
I10034
I10036
tp1303
a(I0
I10038
I10041
tp1304
a(I0
I10043
I10048
tp1305
a(I0
I10050
I10059
tp1306
a(I0
I10061
I10066
tp1307
a(I0
I10068
I10069
tp1308
a(I0
I10071
I10075
tp1309
a(I0
I10083
I10092
tp1310
a(I0
I10094
I10102
tp1311
a(I0
I10104
I10106
tp1312
a(I0
I10108
I10110
tp1313
a(I0
I10112
I10120
tp1314
a(I0
I10122
I10127
tp1315
a(I0
I10129
I10135
tp1316
a(I0
I10137
I10139
tp1317
a(I0
I10141
I10146
tp1318
a(I0
I10152
I10160
tp1319
a(I0
I10162
I10165
tp1320
a(I0
I10167
I10176
tp1321
a(I0
I10178
I10193
tp1322
a(I0
I10195
I10203
tp1323
a(I0
I10205
I10214
tp1324
a(I0
I10216
I10226
tp1325
a(I0
I10228
I10231
tp1326
a(I0
I10233
I10238
tp1327
a(I0
I10240
I10251
tp1328
a(I0
I10253
I10258
tp1329
a(I0
I10260
I10269
tp1330
a(I0
I10271
I10279
tp1331
a(I0
I10281
I10285
tp1332
a(I0
I10287
I10293
tp1333
a(I0
I10295
I10298
tp1334
a(I0
I10300
I10303
tp1335
a(I0
I10307
I10312
tp1336
a(I0
I10314
I10335
tp1337
a(I0
I10339
I10346
tp1338
a(I0
I10348
I10351
tp1339
a(I0
I10353
I10368
tp1340
a(I0
I10374
I10381
tp1341
a(I0
I10383
I10386
tp1342
a(I0
I10388
I10392
tp1343
a(I0
I10394
I10403
tp1344
a(I0
I10405
I10412
tp1345
a(I0
I10414
I10421
tp1346
a(I0
I10423
I10427
tp1347
a(I0
I10429
I10436
tp1348
a(I0
I10438
I10443
tp1349
a(I0
I10445
I10450
tp1350
a(I0
I10452
I10456
tp1351
a(I0
I10458
I10459
tp1352
a(I0
I10461
I10464
tp1353
a(I0
I10468
I10470
tp1354
a(I0
I10472
I10473
tp1355
a(I0
I10475
I10477
tp1356
a(I0
I10479
I10483
tp1357
a(I0
I10485
I10493
tp1358
a(I0
I10495
I10498
tp1359
a(I0
I10500
I10501
tp1360
a(I0
I10503
I10505
tp1361
a(I0
I10507
I10508
tp1362
a(I0
I10510
I10520
tp1363
a(I0
I10522
I10535
tp1364
a(I0
I10539
I10541
tp1365
a(I0
I10543
I10544
tp1366
a(I0
I10546
I10547
tp1367
a(I0
I10549
I10550
tp1368
a(I0
I10552
I10553
tp1369
a(I0
I10555
I10565
tp1370
a(I0
I10567
I10573
tp1371
a(I0
I10575
I10578
tp1372
a(I0
I10580
I10583
tp1373
a(I0
I10589
I10595
tp1374
a(I0
I10601
I10610
tp1375
a(I0
I10612
I10631
tp1376
a(I0
I10633
I10662
tp1377
a(I0
I10664
I10670
tp1378
a(I0
I10672
I10674
tp1379
a(I0
I10676
I10684
tp1380
a(I0
I10686
I10687
tp1381
a(I0
I10689
I10696
tp1382
a(I0
I10698
I10706
tp1383
a(I0
I10708
I10720
tp1384
a(I0
I10722
I10725
tp1385
a(I0
I10727
I10740
tp1386
a(I0
I10742
I10751
tp1387
a(I0
I10753
I10756
tp1388
a(I0
I10758
I10759
tp1389
a(I0
I10765
I10803
tp1390
a(I0
I10805
I10807
tp1391
a(I0
I10809
I10810
tp1392
a(I0
I10812
I10813
tp1393
a(I0
I10815
I10816
tp1394
a(I0
I10820
I10822
tp1395
a(I0
I10826
I10829
tp1396
a(I0
I10835
I10837
tp1397
a(I0
I10839
I10840
tp1398
a(I0
I10842
I10843
tp1399
a(I0
I10845
I10847
tp1400
a(I0
I10849
I10850
tp1401
a(I0
I10858
I10860
tp1402
a(I0
I10868
I10870
tp1403
a(I0
I10874
I10879
tp1404
a(I0
I10881
I10882
tp1405
a(I0
I10884
I10885
tp1406
a(I0
I10887
I10890
tp1407
a(I0
I10892
I10893
tp1408
a(I0
I10895
I10897
tp1409
a(I0
I10899
I10901
tp1410
a(I0
I10903
I10904
tp1411
a(I0
I10910
I10914
tp1412
a(I0
I10916
I10919
tp1413
a(I0
I10927
I10929
tp1414
a(I0
I10931
I10932
tp1415
a(I0
I10934
I10937
tp1416
a(I0
I10941
I10942
tp1417
a(I0
I10944
I10946
tp1418
a(I0
I10948
I10950
tp1419
a(I0
I10952
I10958
tp1420
a(I0
I10960
I10966
tp1421
a(I0
I10968
I10973
tp1422
a(I0
I10975
I10977
tp1423
a(I0
I10979
I10985
tp1424
a(I0
I10987
I10992
tp1425
a(I0
I10994
I10996
tp1426
a(I0
I10998
I11001
tp1427
a(I0
I11003
I11004
tp1428
a(I0
I11006
I11007
tp1429
a(I0
I11009
I11011
tp1430
a(I0
I11013
I11015
tp1431
a(I0
I11017
I11020
tp1432
a(I0
I11022
I11026
tp1433
a(I0
I11028
I11031
tp1434
a(I0
I11033
I11037
tp1435
a(I0
I11039
I11042
tp1436
a(I0
I11044
I11050
tp1437
a(I0
I11052
I11055
tp1438
a(I0
I11059
I11060
tp1439
a(I0
I11062
I11063
tp1440
a(I0
I11065
I11067
tp1441
a(I0
I11069
I11087
tp1442
a(I0
I11089
I11092
tp1443
a(I0
I11094
I11095
tp1444
a(I0
I11097
I11103
tp1445
a(I0
I11105
I11111
tp1446
a(I0
I11113
I11117
tp1447
a(I0
I11119
I11122
tp1448
a(I0
I11124
I11134
tp1449
a(I0
I11138
I11139
tp1450
a(I0
I11147
I11157
tp1451
a(I0
I11159
I11161
tp1452
a(I0
I11163
I11170
tp1453
a(I0
I11172
I11176
tp1454
a(I0
I11178
I11181
tp1455
a(I0
I11183
I11188
tp1456
a(I0
I11190
I11193
tp1457
a(I0
I11195
I11204
tp1458
a(I0
I11206
I11208
tp1459
a(I0
I11210
I11214
tp1460
a(I0
I11216
I11217
tp1461
a(I0
I11219
I11223
tp1462
a(I0
I11229
I11232
tp1463
a(I0
I11234
I11235
tp1464
a(I0
I11239
I11242
tp1465
a(I0
I11244
I11246
tp1466
a(I0
I11248
I11252
tp1467
a(I0
I11254
I11255
tp1468
a(I0
I11259
I11260
tp1469
a(I0
I11264
I11267
tp1470
a(I0
I11269
I11277
tp1471
a(I0
I11279
I11283
tp1472
a(I0
I11285
I11300
tp1473
a(I0
I11302
I11309
tp1474
a(I0
I11311
I11312
tp1475
a(I0
I11314
I11319
tp1476
a(I0
I11321
I11322
tp1477
a(I0
I11324
I11327
tp1478
a(I0
I11329
I11332
tp1479
a(I0
I11334
I11335
tp1480
a(I0
I11343
I11344
tp1481
a(I0
I11346
I11349
tp1482
a(I0
I11351
I11358
tp1483
a(I0
I11360
I11362
tp1484
a(I0
I11364
I11376
tp1485
a(I0
I11378
I11382
tp1486
a(I0
I11384
I11386
tp1487
a(I0
I11390
I11396
tp1488
a(I0
I11398
I11399
tp1489
a(I0
I11405
I11406
tp1490
a(I0
I11408
I11410
tp1491
a(I0
I11416
I11421
tp1492
a(I0
I11425
I11426
tp1493
a(I0
I11430
I11431
tp1494
a(I0
I11433
I11435
tp1495
a(I0
I11437
I11440
tp1496
a(I0
I11442
I11443
tp1497
a(I0
I11445
I11446
tp1498
a(I0
I11448
I11449
tp1499
a(I0
I11451
I11458
tp1500
a(I0
I11460
I11466
tp1501
a(I0
I11472
I11474
tp1502
a(I0
I11476
I11478
tp1503
a(I0
I11480
I11485
tp1504
a(I0
I11487
I11489
tp1505
a(I0
I11491
I11496
tp1506
a(I0
I11498
I11508
tp1507
a(I0
I11510
I11520
tp1508
a(I0
I11522
I11524
tp1509
a(I0
I11526
I11527
tp1510
a(I0
I11529
I11533
tp1511
a(I0
I11535
I11539
tp1512
a(I0
I11541
I11542
tp1513
a(I0
I11544
I11546
tp1514
a(I0
I11548
I11550
tp1515
a(I0
I11552
I11553
tp1516
a(I0
I11559
I11568
tp1517
a(I0
I11570
I11577
tp1518
a(I0
I11579
I11581
tp1519
a(I0
I11585
I11586
tp1520
a(I0
I11588
I11593
tp1521
a(I0
I11595
I11596
tp1522
a(I0
I11598
I11606
tp1523
a(I0
I11608
I11611
tp1524
a(I0
I11613
I11614
tp1525
a(I0
I11616
I11620
tp1526
a(I0
I11622
I11628
tp1527
a(I0
I11630
I11632
tp1528
a(I0
I11634
I11635
tp1529
a(I0
I11637
I11642
tp1530
a(I0
I11644
I11646
tp1531
a(I0
I11648
I11650
tp1532
a(I0
I11652
I11653
tp1533
a(I0
I11655
I11659
tp1534
a(I0
I11661
I11664
tp1535
a(I0
I11666
I11669
tp1536
a(I0
I11671
I11674
tp1537
a(I0
I11676
I11678
tp1538
a(I0
I11684
I11697
tp1539
a(I0
I11699
I11702
tp1540
a(I0
I11704
I11708
tp1541
a(I0
I11710
I11712
tp1542
a(I0
I11714
I11715
tp1543
a(I0
I11721
I11724
tp1544
a(I0
I11726
I11727
tp1545
a(I0
I11729
I11730
tp1546
a(I0
I11732
I11733
tp1547
a(I0
I11735
I11736
tp1548
a(I0
I11738
I11739
tp1549
a(I0
I11743
I11745
tp1550
a(I0
I11747
I11749
tp1551
a(I0
I11751
I11753
tp1552
a(I0
I11755
I11756
tp1553
a(I0
I11758
I11762
tp1554
a(I0
I11764
I11768
tp1555
a(I0
I11770
I11771
tp1556
a(I0
I11773
I11774
tp1557
a(I0
I11776
I11778
tp1558
a(I0
I11782
I11783
tp1559
a(I0
I11785
I11797
tp1560
a(I0
I11799
I11801
tp1561
a(I0
I11805
I11807
tp1562
a(I0
I11809
I11811
tp1563
a(I0
I11817
I11818
tp1564
a(I0
I11820
I11821
tp1565
a(I0
I11825
I11828
tp1566
a(I0
I11832
I11834
tp1567
a(I0
I11836
I11837
tp1568
a(I0
I11839
I11841
tp1569
a(I0
I11843
I11844
tp1570
a(I0
I11848
I11857
tp1571
a(I0
I11859
I11865
tp1572
a(I0
I11867
I11872
tp1573
a(I0
I11874
I11877
tp1574
a(I0
I11879
I11884
tp1575
a(I0
I11886
I11887
tp1576
a(I0
I11889
I11898
tp1577
a(I0
I11900
I11902
tp1578
a(I0
I11904
I11906
tp1579
a(I0
I11908
I11909
tp1580
a(I0
I11913
I11915
tp1581
a(I0
I11925
I11928
tp1582
a(I0
I11930
I11941
tp1583
a(I0
I11943
I11950
tp1584
a(I0
I11952
I11954
tp1585
a(I0
I11956
I11957
tp1586
a(I0
I11959
I11961
tp1587
a(I0
I11967
I11969
tp1588
a(I0
I11971
I11973
tp1589
a(I0
I11975
I11981
tp1590
a(I0
I11983
I11986
tp1591
a(I0
I11988
I11991
tp1592
a(I0
I11993
I11997
tp1593
a(I0
I12001
I12005
tp1594
a(I0
I12007
I12008
tp1595
a(I0
I12014
I12030
tp1596
a(I0
I12032
I12045
tp1597
a(I0
I12047
I12052
tp1598
a(I0
I12054
I12059
tp1599
a(I0
I12063
I12066
tp1600
a(I0
I12068
I12069
tp1601
a(I0
I12073
I12077
tp1602
a(I0
I12079
I12080
tp1603
a(I0
I12082
I12085
tp1604
a(I0
I12087
I12091
tp1605
a(I0
I12093
I12095
tp1606
a(I0
I12099
I12110
tp1607
a(I0
I12112
I12118
tp1608
a(I0
I12122
I12124
tp1609
a(I0
I12126
I12131
tp1610
a(I0
I12133
I12135
tp1611
a(I0
I12141
I12164
tp1612
a(I0
I12166
I12167
tp1613
a(I0
I12169
I12176
tp1614
a(I0
I12178
I12185
tp1615
a(I0
I12191
I12204
tp1616
a(I0
I12206
I12210
tp1617
a(I0
I12212
I12217
tp1618
a(I0
I12219
I12222
tp1619
a(I0
I12224
I12229
tp1620
a(I0
I12231
I12235
tp1621
a(I0
I12237
I12241
tp1622
a(I0
I12243
I12255
tp1623
a(I0
I12257
I12267
tp1624
a(I0
I12269
I12272
tp1625
a(I0
I12274
I12277
tp1626
a(I0
I12279
I12282
tp1627
a(I0
I12284
I12287
tp1628
a(I0
I12289
I12295
tp1629
a(I0
I12297
I12299
tp1630
a(I0
I12301
I12304
tp1631
a(I0
I12306
I12307
tp1632
a(I0
I12309
I12311
tp1633
a(I0
I12313
I12314
tp1634
a(I0
I12316
I12320
tp1635
a(I0
I12322
I12325
tp1636
a(I0
I12327
I12329
tp1637
a(I0
I12331
I12337
tp1638
a(I0
I12339
I12358
tp1639
a(I0
I12362
I12363
tp1640
a(I0
I12365
I12367
tp1641
a(I0
I12369
I12370
tp1642
a(I0
I12372
I12373
tp1643
a(I0
I12377
I12379
tp1644
a(I0
I12381
I12386
tp1645
a(I0
I12388
I12394
tp1646
a(I0
I12396
I12397
tp1647
a(I0
I12399
I12401
tp1648
a(I0
I12403
I12406
tp1649
a(I0
I12412
I12414
tp1650
a(I0
I12416
I12423
tp1651
a(I0
I12425
I12426
tp1652
a(I0
I12428
I12429
tp1653
a(I0
I12431
I12432
tp1654
a(I0
I12434
I12435
tp1655
a(I0
I12437
I12445
tp1656
a(I0
I12447
I12453
tp1657
a(I0
I12459
I12465
tp1658
a(I0
I12467
I12475
tp1659
a(I0
I12477
I12478
tp1660
a(I0
I12480
I12481
tp1661
a(I0
I12483
I12486
tp1662
a(I0
I12488
I12489
tp1663
a(I0
I12491
I12494
tp1664
a(I0
I12496
I12497
tp1665
a(I0
I12499
I12502
tp1666
a(I0
I12504
I12506
tp1667
a(I0
I12508
I12512
tp1668
a(I0
I12514
I12515
tp1669
a(I0
I12519
I12520
tp1670
a(I0
I12522
I12524
tp1671
a(I0
I12526
I12528
tp1672
a(I0
I12530
I12533
tp1673
a(I0
I12535
I12541
tp1674
a(I0
I12543
I12547
tp1675
a(I0
I12551
I12557
tp1676
a(I0
I12559
I12561
tp1677
a(I0
I12563
I12566
tp1678
a(I0
I12568
I12570
tp1679
a(I0
I12572
I12576
tp1680
a(I0
I12578
I12582
tp1681
a(I0
I12584
I12593
tp1682
a(I0
I12597
I12607
tp1683
a(I0
I12609
I12611
tp1684
a(I0
I12613
I12617
tp1685
a(I0
I12619
I12621
tp1686
a(I0
I12623
I12624
tp1687
a(I0
I12626
I12627
tp1688
a(I0
I12629
I12632
tp1689
a(I0
I12634
I12644
tp1690
a(I0
I12646
I12652
tp1691
a(I0
I12654
I12656
tp1692
a(I0
I12658
I12659
tp1693
a(I0
I12661
I12667
tp1694
a(I0
I12669
I12672
tp1695
a(I0
I12674
I12679
tp1696
a(I0
I12681
I12688
tp1697
a(I0
I12690
I12698
tp1698
a(I0
I12700
I12703
tp1699
a(I0
I12705
I12709
tp1700
a(I0
I12711
I12718
tp1701
a(I0
I12720
I12722
tp1702
a(I0
I12724
I12726
tp1703
a(I0
I12732
I12737
tp1704
a(I0
I12739
I12741
tp1705
a(I0
I12743
I12746
tp1706
a(I0
I12750
I12761
tp1707
a(I0
I12763
I12764
tp1708
a(I0
I12766
I12773
tp1709
a(I0
I12785
I12792
tp1710
a(I0
I12794
I12799
tp1711
a(I0
I12801
I12804
tp1712
a(I0
I12806
I12809
tp1713
a(I0
I12811
I12812
tp1714
a(I0
I12814
I12816
tp1715
a(I0
I12818
I12820
tp1716
a(I0
I12822
I12827
tp1717
a(I0
I12829
I12843
tp1718
a(I0
I12845
I12847
tp1719
a(I0
I12851
I12853
tp1720
a(I0
I12857
I12862
tp1721
a(I0
I12864
I12867
tp1722
a(I0
I12869
I12883
tp1723
a(I0
I12885
I12898
tp1724
a(I0
I12904
I12914
tp1725
a(I0
I12916
I12918
tp1726
a(I0
I12920
I12925
tp1727
a(I0
I12927
I12935
tp1728
a(I0
I12937
I12943
tp1729
a(I0
I12945
I12953
tp1730
a(I0
I12957
I12963
tp1731
a(I0
I12967
I12982
tp1732
a(I0
I12984
I12989
tp1733
a(I0
I12991
I12995
tp1734
a(I0
I12997
I13007
tp1735
a(I0
I13009
I13020
tp1736
a(I0
I13022
I13024
tp1737
a.